target datalayout = "e-m:e-p270:32:32-p271:32:32-p272:64:64-i64:64-i128:128-f80:128-n8:16:32:64-S128"
target triple = "x86_64-pc-linux-gnu"

%struct._io_graph_settings_t = type { i8, i8, ptr, ptr, i32, i32, i32, ptr, i32, i32 }

; Function Attrs: mustprogress null_pointer_is_valid sspstrong uwtable
define internal void @_ZL21io_graph_color_set_cbPvPKcjPKvS3_(ptr noundef %0, ptr noundef %1, i32 noundef %2, ptr noundef %3, ptr noundef %4) #3 {
  %6 = alloca ptr, align 8
  %7 = alloca ptr, align 8
  %8 = alloca i32, align 4
  %9 = alloca ptr, align 8
  %10 = alloca ptr, align 8
  %11 = alloca ptr, align 8
  store ptr %0, ptr %6, align 8
  store ptr %1, ptr %7, align 8
  store i32 %2, ptr %8, align 4
  store ptr %3, ptr %9, align 8
  store ptr %4, ptr %10, align 8
  %12 = load i32, ptr %8, align 4
  %13 = icmp ult i32 %12, 1
  br i1 %13, label %14, label %17

14:                                               ; preds = %5
  %15 = load ptr, ptr %6, align 8
  %16 = getelementptr inbounds nuw %struct._io_graph_settings_t, ptr %15, i32 0, i32 4
  store i32 0, ptr %16, align 8
  br label %30

17:                                               ; preds = %5
  call void @llvm.lifetime.start.p0(i64 8, ptr %11) #2
  %18 = load ptr, ptr %7, align 8
  %19 = getelementptr i8, ptr %18, i64 1
  %20 = load i32, ptr %8, align 4
  %21 = sub i32 %20, 1
  %22 = zext i32 %21 to i64
  %23 = call noalias ptr @g_strndup(ptr noundef %19, i64 noundef %22)
  store ptr %23, ptr %11, align 8
  %24 = load ptr, ptr %11, align 8
  %25 = call i64 @strtol(ptr noundef %24, ptr noundef null, i32 noundef 16) #2
  %26 = trunc i64 %25 to i32
  %27 = load ptr, ptr %6, align 8
  %28 = getelementptr inbounds nuw %struct._io_graph_settings_t, ptr %27, i32 0, i32 4
  store i32 %26, ptr %28, align 8
  %29 = load ptr, ptr %11, align 8
  call void @g_free(ptr noundef %29)
  call void @llvm.lifetime.end.p0(i64 8, ptr %11) #2
  br label %30

30:                                               ; preds = %17, %14
  ret void
}