; Function Attrs: mustprogress null_pointer_is_valid sspstrong uwtable
define internal void @_ZL21io_graph_color_set_cbPvPKcjPKvS3_(ptr noundef writeonly captures(none) initializes((24, 28)) %0, ptr noundef %1, i32 noundef %2, ptr readnone captures(none) %3, ptr readnone captures(none) %4) #2 {
  %6 = icmp eq i32 %2, 0
  br i1 %6, label %7, label %9

7:                                                ; preds = %5
  %8 = getelementptr inbounds nuw i8, ptr %0, i64 24
  store i32 0, ptr %8, align 8
  br label %17

9:                                                ; preds = %5
  %10 = getelementptr i8, ptr %1, i64 1
  %11 = add i32 %2, -1
  %12 = zext i32 %11 to i64
  %13 = tail call noalias ptr @g_strndup(ptr noundef %10, i64 noundef %12)
  %14 = tail call i64 @strtol(ptr noundef captures(none) %13, ptr noundef null, i32 noundef 16) #33
  %15 = trunc i64 %14 to i32
  %16 = getelementptr inbounds nuw i8, ptr %0, i64 24
  store i32 %15, ptr %16, align 8
  tail call void @g_free(ptr noundef %13)
  br label %17

17:                                               ; preds = %9, %7
  ret void
}